target datalayout = "e-m:e-p270:32:32-p271:32:32-p272:64:64-i64:64-i128:128-f80:128-n8:16:32:64-S128"
target triple = "x86_64-pc-linux-gnu"

%struct.DeclTable = type { i32, i32, i32, ptr }

; Function Attrs: nounwind uwtable
define dso_local void @decltable_init(ptr noundef %0, i32 noundef %1) #0 {
  %3 = alloca ptr, align 8
  %4 = alloca i32, align 4
  %5 = alloca ptr, align 8
  store ptr %0, ptr %3, align 8
  store i32 %1, ptr %4, align 4
  %6 = load i32, ptr %4, align 4
  %7 = zext i32 %6 to i64
  %8 = mul i64 %7, 4
  %9 = call ptr @calloc_arena(i64 noundef %8)
  store ptr %9, ptr %5, align 8
  %10 = load ptr, ptr %3, align 8
  %11 = getelementptr inbounds %struct.DeclTable, ptr %10, i32 0, i32 0
  store i32 0, ptr %11, align 8
  %12 = load i32, ptr %4, align 4
  %13 = load ptr, ptr %3, align 8
  %14 = getelementptr inbounds %struct.DeclTable, ptr %13, i32 0, i32 1
  store i32 %12, ptr %14, align 4
  %15 = load i32, ptr %4, align 4
  %16 = uitofp i32 %15 to double
  %17 = fmul double %16, 5.000000e-01
  %18 = fptoui double %17 to i32
  %19 = load ptr, ptr %3, align 8
  %20 = getelementptr inbounds %struct.DeclTable, ptr %19, i32 0, i32 2
  store i32 %18, ptr %20, align 8
  %21 = load ptr, ptr %5, align 8
  %22 = load ptr, ptr %3, align 8
  %23 = getelementptr inbounds %struct.DeclTable, ptr %22, i32 0, i32 3
  store ptr %21, ptr %23, align 8
  ret void
}